target datalayout = "e-m:e-p270:32:32-p271:32:32-p272:64:64-i64:64-i128:128-f80:128-n8:16:32:64-S128"
target triple = "x86_64-pc-linux-gnu"

%struct.txfm_param = type { i8, i8, i32, i32, i32, i8, i32 }

; Function Attrs: nounwind uwtable
define hidden void @av1_highbd_iwht4x4_add(ptr noundef %0, ptr noundef %1, i32 noundef %2, i32 noundef %3, i32 noundef %4) #0 {
  %6 = alloca ptr, align 8
  %7 = alloca ptr, align 8
  %8 = alloca i32, align 4
  %9 = alloca i32, align 4
  %10 = alloca i32, align 4
  store ptr %0, ptr %6, align 8
  store ptr %1, ptr %7, align 8
  store i32 %2, ptr %8, align 4
  store i32 %3, ptr %9, align 4
  store i32 %4, ptr %10, align 4
  %11 = load i32, ptr %9, align 4
  %12 = icmp sgt i32 %11, 1
  br i1 %12, label %13, label %18

13:                                               ; preds = %5
  %14 = load ptr, ptr %6, align 8
  %15 = load ptr, ptr %7, align 8
  %16 = load i32, ptr %8, align 4
  %17 = load i32, ptr %10, align 4
  call void @av1_highbd_iwht4x4_16_add_c(ptr noundef %14, ptr noundef %15, i32 noundef %16, i32 noundef %17)
  br label %23

18:                                               ; preds = %5
  %19 = load ptr, ptr %6, align 8
  %20 = load ptr, ptr %7, align 8
  %21 = load i32, ptr %8, align 4
  %22 = load i32, ptr %10, align 4
  call void @av1_highbd_iwht4x4_1_add_c(ptr noundef %19, ptr noundef %20, i32 noundef %21, i32 noundef %22)
  br label %23

23:                                               ; preds = %18, %13
  ret void
}

; Function Attrs: nounwind uwtable
define internal ptr @cast_to_int32(ptr noundef %0) #0 {
  %2 = alloca ptr, align 8
  store ptr %0, ptr %2, align 8
  %3 = load ptr, ptr %2, align 8
  ret ptr %3
}

; Function Attrs: nounwind uwtable
define hidden void @av1_highbd_inv_txfm_add_4x4_c(ptr noundef %0, ptr noundef %1, i32 noundef %2, ptr noundef %3) #0 {
  %5 = alloca ptr, align 8
  %6 = alloca ptr, align 8
  %7 = alloca i32, align 4
  %8 = alloca ptr, align 8
  %9 = alloca i32, align 4
  %10 = alloca i32, align 4
  %11 = alloca i32, align 4
  %12 = alloca ptr, align 8
  %13 = alloca i8, align 1
  store ptr %0, ptr %5, align 8
  store ptr %1, ptr %6, align 8
  store i32 %2, ptr %7, align 4
  store ptr %3, ptr %8, align 8
  %14 = load ptr, ptr %8, align 8
  %15 = getelementptr inbounds nuw %struct.txfm_param, ptr %14, i32 0, i32 6
  %16 = load i32, ptr %15, align 4
  store i32 %16, ptr %9, align 4
  %17 = load ptr, ptr %8, align 8
  %18 = getelementptr inbounds nuw %struct.txfm_param, ptr %17, i32 0, i32 3
  %19 = load i32, ptr %18, align 4
  store i32 %19, ptr %10, align 4
  %20 = load ptr, ptr %8, align 8
  %21 = getelementptr inbounds nuw %struct.txfm_param, ptr %20, i32 0, i32 2
  %22 = load i32, ptr %21, align 4
  store i32 %22, ptr %11, align 4
  %23 = load ptr, ptr %5, align 8
  %24 = call ptr @cast_to_int32(ptr noundef %23)
  store ptr %24, ptr %12, align 8
  %25 = load ptr, ptr %8, align 8
  %26 = getelementptr inbounds nuw %struct.txfm_param, ptr %25, i32 0, i32 0
  %27 = load i8, ptr %26, align 4
  store i8 %27, ptr %13, align 1
  %28 = load i32, ptr %11, align 4
  %29 = icmp ne i32 %28, 0
  br i1 %29, label %30, label %36

30:                                               ; preds = %4
  %31 = load ptr, ptr %5, align 8
  %32 = load ptr, ptr %6, align 8
  %33 = load i32, ptr %7, align 4
  %34 = load i32, ptr %9, align 4
  %35 = load i32, ptr %10, align 4
  call void @av1_highbd_iwht4x4_add(ptr noundef %31, ptr noundef %32, i32 noundef %33, i32 noundef %34, i32 noundef %35)
  br label %45

36:                                               ; preds = %4
  %37 = load ptr, ptr %12, align 8
  %38 = load ptr, ptr %6, align 8
  %39 = ptrtoint ptr %38 to i64
  %40 = shl i64 %39, 1
  %41 = inttoptr i64 %40 to ptr
  %42 = load i32, ptr %7, align 4
  %43 = load i8, ptr %13, align 1
  %44 = load i32, ptr %10, align 4
  call void @av1_inv_txfm2d_add_4x4_c(ptr noundef %37, ptr noundef %41, i32 noundef %42, i8 noundef zeroext %43, i32 noundef %44)
  br label %45

45:                                               ; preds = %36, %30
  ret void
}