; Function Attrs: nounwind uwtable
define hidden void @av1_highbd_inv_txfm_add_4x4_c(ptr noundef %0, ptr noundef %1, i32 noundef %2, ptr nocapture noundef readonly %3) local_unnamed_addr #1 {
  %5 = getelementptr inbounds nuw i8, ptr %3, i64 8
  %6 = load i32, ptr %5, align 4
  %7 = getelementptr inbounds nuw i8, ptr %3, i64 4
  %8 = load i32, ptr %7, align 4
  %.not = icmp eq i32 %8, 0
  br i1 %.not, label %15, label %9

9:                                                ; preds = %4
  %10 = getelementptr inbounds nuw i8, ptr %3, i64 20
  %11 = load i32, ptr %10, align 4
  %12 = icmp sgt i32 %11, 1
  br i1 %12, label %13, label %14

13:                                               ; preds = %9
  tail call void @av1_highbd_iwht4x4_16_add_c(ptr noundef %0, ptr noundef %1, i32 noundef %2, i32 noundef %6) #5
  br label %av1_highbd_iwht4x4_add.exit

14:                                               ; preds = %9
  tail call void @av1_highbd_iwht4x4_1_add_c(ptr noundef %0, ptr noundef %1, i32 noundef %2, i32 noundef %6) #5
  br label %av1_highbd_iwht4x4_add.exit

15:                                               ; preds = %4
  %16 = load i8, ptr %3, align 4
  %17 = ptrtoint ptr %1 to i64
  %18 = shl i64 %17, 1
  %19 = inttoptr i64 %18 to ptr
  tail call void @av1_inv_txfm2d_add_4x4_c(ptr noundef %0, ptr noundef %19, i32 noundef %2, i8 noundef zeroext %16, i32 noundef %6) #5
  br label %av1_highbd_iwht4x4_add.exit

av1_highbd_iwht4x4_add.exit:                      ; preds = %14, %13, %15
  ret void
}